target datalayout = "e-m:e-p270:32:32-p271:32:32-p272:64:64-i64:64-i128:128-f80:128-n8:16:32:64-S128"
target triple = "x86_64-pc-linux-gnu"

%struct.dynhds = type { ptr, i64, i64, i64, i64, i64, i32 }

; Function Attrs: nounwind uwtable
define hidden void @Curl_dynhds_init(ptr noundef %0, i64 noundef %1, i64 noundef %2) #0 {
  %4 = alloca ptr, align 8
  %5 = alloca i64, align 8
  %6 = alloca i64, align 8
  store ptr %0, ptr %4, align 8, !tbaa !3
  store i64 %1, ptr %5, align 8, !tbaa !8
  store i64 %2, ptr %6, align 8, !tbaa !8
  br label %7

7:                                                ; preds = %3
  br label %8

8:                                                ; preds = %7
  br label %9

9:                                                ; preds = %8
  br label %10

10:                                               ; preds = %9
  %11 = load ptr, ptr %4, align 8, !tbaa !3
  %12 = getelementptr inbounds nuw %struct.dynhds, ptr %11, i32 0, i32 0
  store ptr null, ptr %12, align 8, !tbaa !10
  %13 = load ptr, ptr %4, align 8, !tbaa !3
  %14 = getelementptr inbounds nuw %struct.dynhds, ptr %13, i32 0, i32 4
  store i64 0, ptr %14, align 8, !tbaa !14
  %15 = load ptr, ptr %4, align 8, !tbaa !3
  %16 = getelementptr inbounds nuw %struct.dynhds, ptr %15, i32 0, i32 2
  store i64 0, ptr %16, align 8, !tbaa !15
  %17 = load ptr, ptr %4, align 8, !tbaa !3
  %18 = getelementptr inbounds nuw %struct.dynhds, ptr %17, i32 0, i32 1
  store i64 0, ptr %18, align 8, !tbaa !16
  %19 = load i64, ptr %5, align 8, !tbaa !8
  %20 = load ptr, ptr %4, align 8, !tbaa !3
  %21 = getelementptr inbounds nuw %struct.dynhds, ptr %20, i32 0, i32 3
  store i64 %19, ptr %21, align 8, !tbaa !17
  %22 = load i64, ptr %6, align 8, !tbaa !8
  %23 = load ptr, ptr %4, align 8, !tbaa !3
  %24 = getelementptr inbounds nuw %struct.dynhds, ptr %23, i32 0, i32 5
  store i64 %22, ptr %24, align 8, !tbaa !18
  %25 = load ptr, ptr %4, align 8, !tbaa !3
  %26 = getelementptr inbounds nuw %struct.dynhds, ptr %25, i32 0, i32 6
  store i32 0, ptr %26, align 8, !tbaa !19
  ret void
}