; Function Attrs: mustprogress nofree norecurse nosync nounwind willreturn memory(argmem: write) uwtable
define hidden void @Curl_dynhds_init(ptr noundef writeonly captures(none) initializes((0, 52)) %0, i64 noundef %1, i64 noundef %2) local_unnamed_addr #0 {
  %4 = getelementptr inbounds nuw i8, ptr %0, i64 32
  store i64 0, ptr %4, align 8, !tbaa !3
  %5 = getelementptr inbounds nuw i8, ptr %0, i64 24
  tail call void @llvm.memset.p0.i64(ptr noundef nonnull align 8 dereferenceable(24) %0, i8 0, i64 24, i1 false)
  store i64 %1, ptr %5, align 8, !tbaa !11
  %6 = getelementptr inbounds nuw i8, ptr %0, i64 40
  store i64 %2, ptr %6, align 8, !tbaa !12
  %7 = getelementptr inbounds nuw i8, ptr %0, i64 48
  store i32 0, ptr %7, align 8, !tbaa !13
  ret void
}